(dp1
S'10.1093/bioinformatics/btr167'
p2
(F1433772642.029259
NS' @article{Krueger_2011, title={Bismark: a flexible aligner and methylation caller for Bisulfite-Seq applications}, volume={27}, ISSN={1460-2059}, url={http://dx.doi.org/10.1093/bioinformatics/btr167}, DOI={10.1093/bioinformatics/btr167}, number={11}, journal={Bioinformatics}, publisher={Oxford University Press (OUP)}, author={Krueger, F. and Andrews, S. R.}, year={2011}, month={Apr}, pages={1571\xe2\x80\x931572}}\n'
p3
tp4
s.